target datalayout = "e-m:e-p270:32:32-p271:32:32-p272:64:64-i64:64-i128:128-f80:128-n8:16:32:64-S128"
target triple = "x86_64-pc-linux-gnu"

%"struct.duckdb_yyjson::yyjson_alc" = type { ptr, ptr, ptr, ptr }

@__const._ZN13duckdb_yyjson18yyjson_alc_dyn_newEv.def = private unnamed_addr constant %"struct.duckdb_yyjson::yyjson_alc" { ptr @_ZN13duckdb_yyjsonL14default_mallocEPvm, ptr @_ZN13duckdb_yyjsonL15default_reallocEPvS0_mm, ptr @_ZN13duckdb_yyjsonL12default_freeEPvS0_, ptr null }, align 8

; Function Attrs: mustprogress uwtable
define noundef ptr @_ZN13duckdb_yyjson18yyjson_alc_dyn_newEv() #1 {
  %1 = alloca ptr, align 8
  %2 = alloca %"struct.duckdb_yyjson::yyjson_alc", align 8
  %3 = alloca i64, align 8
  %4 = alloca ptr, align 8
  %5 = alloca ptr, align 8
  %6 = alloca i32, align 4
  call void @llvm.lifetime.start.p0(i64 32, ptr %2) #15
  call void @llvm.memcpy.p0.p0.i64(ptr align 8 %2, ptr align 8 @__const._ZN13duckdb_yyjson18yyjson_alc_dyn_newEv.def, i64 32, i1 false)
  call void @llvm.lifetime.start.p0(i64 8, ptr %3) #15
  store i64 64, ptr %3, align 8, !tbaa !9
  call void @llvm.lifetime.start.p0(i64 8, ptr %4) #15
  %7 = getelementptr inbounds nuw %"struct.duckdb_yyjson::yyjson_alc", ptr %2, i32 0, i32 0
  %8 = load ptr, ptr %7, align 8, !tbaa !22
  %9 = getelementptr inbounds nuw %"struct.duckdb_yyjson::yyjson_alc", ptr %2, i32 0, i32 3
  %10 = load ptr, ptr %9, align 8, !tbaa !26
  %11 = load i64, ptr %3, align 8, !tbaa !9
  %12 = call noundef ptr %8(ptr noundef %10, i64 noundef %11)
  store ptr %12, ptr %4, align 8, !tbaa !3
  call void @llvm.lifetime.start.p0(i64 8, ptr %5) #15
  %13 = load ptr, ptr %4, align 8, !tbaa !3
  %14 = getelementptr inbounds %"struct.duckdb_yyjson::yyjson_alc", ptr %13, i64 1
  store ptr %14, ptr %5, align 8, !tbaa !8
  %15 = load ptr, ptr %4, align 8, !tbaa !3
  %16 = icmp ne ptr %15, null
  %17 = xor i1 %16, true
  %18 = xor i1 %17, true
  %19 = xor i1 %18, true
  %20 = zext i1 %19 to i64
  %21 = call i64 @llvm.expect.i64(i64 %20, i64 0)
  %22 = icmp ne i64 %21, 0
  br i1 %22, label %23, label %24

23:                                               ; preds = %0
  store ptr null, ptr %1, align 8
  store i32 1, ptr %6, align 4
  br label %37

24:                                               ; preds = %0
  %25 = load ptr, ptr %4, align 8, !tbaa !3
  %26 = getelementptr inbounds nuw %"struct.duckdb_yyjson::yyjson_alc", ptr %25, i32 0, i32 0
  store ptr @_ZN13duckdb_yyjsonL10dyn_mallocEPvm, ptr %26, align 8, !tbaa !22
  %27 = load ptr, ptr %4, align 8, !tbaa !3
  %28 = getelementptr inbounds nuw %"struct.duckdb_yyjson::yyjson_alc", ptr %27, i32 0, i32 1
  store ptr @_ZN13duckdb_yyjsonL11dyn_reallocEPvS0_mm, ptr %28, align 8, !tbaa !24
  %29 = load ptr, ptr %4, align 8, !tbaa !3
  %30 = getelementptr inbounds nuw %"struct.duckdb_yyjson::yyjson_alc", ptr %29, i32 0, i32 2
  store ptr @_ZN13duckdb_yyjsonL8dyn_freeEPvS0_, ptr %30, align 8, !tbaa !25
  %31 = load ptr, ptr %4, align 8, !tbaa !3
  %32 = getelementptr inbounds %"struct.duckdb_yyjson::yyjson_alc", ptr %31, i64 1
  %33 = load ptr, ptr %4, align 8, !tbaa !3
  %34 = getelementptr inbounds nuw %"struct.duckdb_yyjson::yyjson_alc", ptr %33, i32 0, i32 3
  store ptr %32, ptr %34, align 8, !tbaa !26
  %35 = load ptr, ptr %5, align 8, !tbaa !8
  call void @llvm.memset.p0.i64(ptr align 8 %35, i8 0, i64 32, i1 false)
  %36 = load ptr, ptr %4, align 8, !tbaa !3
  store ptr %36, ptr %1, align 8
  store i32 1, ptr %6, align 4
  br label %37

37:                                               ; preds = %24, %23
  call void @llvm.lifetime.end.p0(i64 8, ptr %5) #15
  call void @llvm.lifetime.end.p0(i64 8, ptr %4) #15
  call void @llvm.lifetime.end.p0(i64 8, ptr %3) #15
  call void @llvm.lifetime.end.p0(i64 32, ptr %2) #15
  %38 = load ptr, ptr %1, align 8
  ret ptr %38
}