; Function Attrs: mustprogress nofree nounwind willreturn memory(write, argmem: none, inaccessiblemem: readwrite) uwtable
define noundef ptr @_ZN13duckdb_yyjson18yyjson_alc_dyn_newEv() local_unnamed_addr #5 {
  %1 = tail call noalias noundef dereferenceable_or_null(64) ptr @malloc(i64 noundef 64) #29
  %.not = icmp eq ptr %1, null
  br i1 %.not, label %7, label %2, !prof !3

2:                                                ; preds = %0
  %3 = getelementptr inbounds nuw i8, ptr %1, i64 32
  store ptr @_ZN13duckdb_yyjsonL10dyn_mallocEPvm, ptr %1, align 8, !tbaa !17
  %4 = getelementptr inbounds nuw i8, ptr %1, i64 8
  store ptr @_ZN13duckdb_yyjsonL11dyn_reallocEPvS0_mm, ptr %4, align 8, !tbaa !19
  %5 = getelementptr inbounds nuw i8, ptr %1, i64 16
  store ptr @_ZN13duckdb_yyjsonL8dyn_freeEPvS0_, ptr %5, align 8, !tbaa !20
  %6 = getelementptr inbounds nuw i8, ptr %1, i64 24
  store ptr %3, ptr %6, align 8, !tbaa !21
  tail call void @llvm.memset.p0.i64(ptr noundef nonnull align 8 dereferenceable(32) %3, i8 0, i64 32, i1 false)
  br label %7

7:                                                ; preds = %0, %2
  ret ptr %1
}